target datalayout = "e-m:e-p270:32:32-p271:32:32-p272:64:64-i64:64-i128:128-f80:128-n8:16:32:64-S128"
target triple = "x86_64-pc-linux-gnu"

%struct.Abc_Frame_t_ = type { ptr, ptr, ptr, ptr, ptr, ptr, ptr, ptr, ptr, ptr, i32, i32, i32, i32, i32, ptr, float, float, i32, i32, ptr, ptr, ptr, double, double, ptr, ptr, ptr, ptr, ptr, ptr, ptr, ptr, ptr, ptr, ptr, ptr, float, ptr, i32, ptr, ptr, ptr, ptr, ptr, i32, i32, i32, i32, i32, i32, ptr, ptr, ptr, ptr, ptr, ptr, i32, i32, ptr, ptr, ptr, ptr, ptr, ptr, ptr, ptr, ptr, ptr, ptr, ptr, ptr, ptr, ptr, ptr, ptr, ptr, ptr, ptr, ptr, ptr, ptr, ptr, ptr, ptr, ptr, ptr, ptr, ptr }

@globalUtilOptind = external global i32, align 4
@.str.39 = private unnamed_addr constant [4 x i8] c"yes\00", align 1
@.str.40 = private unnamed_addr constant [3 x i8] c"no\00", align 1
@.str.54 = private unnamed_addr constant [40 x i8] c"There is no Liberty library available.\0A\00", align 1
@.str.66 = private unnamed_addr constant [36 x i8] c"\09-h       : print the help massage\0A\00", align 1
@.str.67 = private unnamed_addr constant [5 x i8] c"ABvh\00", align 1
@.str.68 = private unnamed_addr constant [73 x i8] c"Command line switch \22-A\22 should be followed by a floating point number.\0A\00", align 1
@.str.69 = private unnamed_addr constant [73 x i8] c"Command line switch \22-B\22 should be followed by a floating point number.\0A\00", align 1
@.str.70 = private unnamed_addr constant [35 x i8] c"usage: leak2area [-AB float] [-v]\0A\00", align 1
@.str.71 = private unnamed_addr constant [71 x i8] c"\09           converts leakage into area: Area = A * Area + B * Leakage\0A\00", align 1
@.str.72 = private unnamed_addr constant [79 x i8] c"\09-A float : the multiplicative coefficient to transform area [default = %.2f]\0A\00", align 1
@.str.73 = private unnamed_addr constant [82 x i8] c"\09-B float : the multiplicative coefficient to transform leakage [default = %.2f]\0A\00", align 1
@.str.74 = private unnamed_addr constant [64 x i8] c"\09-v       : toggle printing verbose information [default = %s]\0A\00", align 1

; Function Attrs: inlinehint nounwind willreturn memory(read) uwtable
define available_externally double @atof(ptr noundef nonnull %0) #7 {
  %2 = alloca ptr, align 8
  store ptr %0, ptr %2, align 8, !tbaa !56
  %3 = load ptr, ptr %2, align 8, !tbaa !56
  %4 = call double @strtod(ptr noundef %3, ptr noundef null) #12
  ret double %4
}

; Function Attrs: nounwind uwtable
define internal i32 @Scl_CommandLeak2Area(ptr noundef %0, i32 noundef %1, ptr noundef %2) #0 {
  %4 = alloca i32, align 4
  %5 = alloca ptr, align 8
  %6 = alloca i32, align 4
  %7 = alloca ptr, align 8
  %8 = alloca float, align 4
  %9 = alloca float, align 4
  %10 = alloca i32, align 4
  %11 = alloca i32, align 4
  %12 = alloca i32, align 4
  store ptr %0, ptr %5, align 8, !tbaa !3
  store i32 %1, ptr %6, align 4, !tbaa !29
  store ptr %2, ptr %7, align 8, !tbaa !50
  call void @llvm.lifetime.start.p0(i64 4, ptr %8) #12
  store float 1.000000e+00, ptr %8, align 4, !tbaa !52
  call void @llvm.lifetime.start.p0(i64 4, ptr %9) #12
  store float 1.000000e+00, ptr %9, align 4, !tbaa !52
  call void @llvm.lifetime.start.p0(i64 4, ptr %10) #12
  call void @llvm.lifetime.start.p0(i64 4, ptr %11) #12
  store i32 0, ptr %11, align 4, !tbaa !29
  call void (...) @Extra_UtilGetoptReset()
  br label %13

13:                                               ; preds = %65, %3
  %14 = load i32, ptr %6, align 4, !tbaa !29
  %15 = load ptr, ptr %7, align 8, !tbaa !50
  %16 = call i32 @Extra_UtilGetopt(i32 noundef %14, ptr noundef %15, ptr noundef @.str.67)
  store i32 %16, ptr %10, align 4, !tbaa !29
  %17 = icmp ne i32 %16, -1
  br i1 %17, label %18, label %66

18:                                               ; preds = %13
  %19 = load i32, ptr %10, align 4, !tbaa !29
  switch i32 %19, label %64 [
    i32 65, label %20
    i32 66, label %40
    i32 118, label %60
    i32 104, label %63
  ]

20:                                               ; preds = %18
  %21 = load i32, ptr @globalUtilOptind, align 4, !tbaa !29
  %22 = load i32, ptr %6, align 4, !tbaa !29
  %23 = icmp sge i32 %21, %22
  br i1 %23, label %24, label %25

24:                                               ; preds = %20
  call void (i32, ptr, ...) @Abc_Print(i32 noundef -1, ptr noundef @.str.68)
  br label %82

25:                                               ; preds = %20
  %26 = load ptr, ptr %7, align 8, !tbaa !50
  %27 = load i32, ptr @globalUtilOptind, align 4, !tbaa !29
  %28 = sext i32 %27 to i64
  %29 = getelementptr inbounds ptr, ptr %26, i64 %28
  %30 = load ptr, ptr %29, align 8, !tbaa !56
  %31 = call double @atof(ptr noundef %30) #14
  %32 = fptrunc double %31 to float
  store float %32, ptr %8, align 4, !tbaa !52
  %33 = load i32, ptr @globalUtilOptind, align 4, !tbaa !29
  %34 = add nsw i32 %33, 1
  store i32 %34, ptr @globalUtilOptind, align 4, !tbaa !29
  %35 = load float, ptr %8, align 4, !tbaa !52
  %36 = fpext float %35 to double
  %37 = fcmp ole double %36, 0.000000e+00
  br i1 %37, label %38, label %39

38:                                               ; preds = %25
  br label %82

39:                                               ; preds = %25
  br label %65

40:                                               ; preds = %18
  %41 = load i32, ptr @globalUtilOptind, align 4, !tbaa !29
  %42 = load i32, ptr %6, align 4, !tbaa !29
  %43 = icmp sge i32 %41, %42
  br i1 %43, label %44, label %45

44:                                               ; preds = %40
  call void (i32, ptr, ...) @Abc_Print(i32 noundef -1, ptr noundef @.str.69)
  br label %82

45:                                               ; preds = %40
  %46 = load ptr, ptr %7, align 8, !tbaa !50
  %47 = load i32, ptr @globalUtilOptind, align 4, !tbaa !29
  %48 = sext i32 %47 to i64
  %49 = getelementptr inbounds ptr, ptr %46, i64 %48
  %50 = load ptr, ptr %49, align 8, !tbaa !56
  %51 = call double @atof(ptr noundef %50) #14
  %52 = fptrunc double %51 to float
  store float %52, ptr %9, align 4, !tbaa !52
  %53 = load i32, ptr @globalUtilOptind, align 4, !tbaa !29
  %54 = add nsw i32 %53, 1
  store i32 %54, ptr @globalUtilOptind, align 4, !tbaa !29
  %55 = load float, ptr %9, align 4, !tbaa !52
  %56 = fpext float %55 to double
  %57 = fcmp ole double %56, 0.000000e+00
  br i1 %57, label %58, label %59

58:                                               ; preds = %45
  br label %82

59:                                               ; preds = %45
  br label %65

60:                                               ; preds = %18
  %61 = load i32, ptr %11, align 4, !tbaa !29
  %62 = xor i32 %61, 1
  store i32 %62, ptr %11, align 4, !tbaa !29
  br label %65

63:                                               ; preds = %18
  br label %82

64:                                               ; preds = %18
  br label %82

65:                                               ; preds = %60, %59, %39
  br label %13, !llvm.loop !65

66:                                               ; preds = %13
  %67 = load ptr, ptr %5, align 8, !tbaa !3
  %68 = getelementptr inbounds nuw %struct.Abc_Frame_t_, ptr %67, i32 0, i32 34
  %69 = load ptr, ptr %68, align 8, !tbaa !58
  %70 = icmp eq ptr %69, null
  br i1 %70, label %71, label %76

71:                                               ; preds = %66
  %72 = load ptr, ptr %5, align 8, !tbaa !3
  %73 = getelementptr inbounds nuw %struct.Abc_Frame_t_, ptr %72, i32 0, i32 21
  %74 = load ptr, ptr %73, align 8, !tbaa !59
  %75 = call i32 (ptr, ptr, ...) @fprintf(ptr noundef %74, ptr noundef @.str.54) #12
  store i32 1, ptr %4, align 4
  store i32 1, ptr %12, align 4
  br label %114

76:                                               ; preds = %66
  %77 = load ptr, ptr %5, align 8, !tbaa !3
  %78 = getelementptr inbounds nuw %struct.Abc_Frame_t_, ptr %77, i32 0, i32 34
  %79 = load ptr, ptr %78, align 8, !tbaa !58
  %80 = load float, ptr %8, align 4, !tbaa !52
  %81 = load float, ptr %9, align 4, !tbaa !52
  call void @Abc_SclConvertLeakageIntoArea(ptr noundef %79, float noundef %80, float noundef %81)
  store i32 0, ptr %4, align 4
  store i32 1, ptr %12, align 4
  br label %114

82:                                               ; preds = %64, %63, %58, %44, %38, %24
  %83 = load ptr, ptr %5, align 8, !tbaa !3
  %84 = getelementptr inbounds nuw %struct.Abc_Frame_t_, ptr %83, i32 0, i32 21
  %85 = load ptr, ptr %84, align 8, !tbaa !59
  %86 = call i32 (ptr, ptr, ...) @fprintf(ptr noundef %85, ptr noundef @.str.70) #12
  %87 = load ptr, ptr %5, align 8, !tbaa !3
  %88 = getelementptr inbounds nuw %struct.Abc_Frame_t_, ptr %87, i32 0, i32 21
  %89 = load ptr, ptr %88, align 8, !tbaa !59
  %90 = call i32 (ptr, ptr, ...) @fprintf(ptr noundef %89, ptr noundef @.str.71) #12
  %91 = load ptr, ptr %5, align 8, !tbaa !3
  %92 = getelementptr inbounds nuw %struct.Abc_Frame_t_, ptr %91, i32 0, i32 21
  %93 = load ptr, ptr %92, align 8, !tbaa !59
  %94 = load float, ptr %8, align 4, !tbaa !52
  %95 = fpext float %94 to double
  %96 = call i32 (ptr, ptr, ...) @fprintf(ptr noundef %93, ptr noundef @.str.72, double noundef %95) #12
  %97 = load ptr, ptr %5, align 8, !tbaa !3
  %98 = getelementptr inbounds nuw %struct.Abc_Frame_t_, ptr %97, i32 0, i32 21
  %99 = load ptr, ptr %98, align 8, !tbaa !59
  %100 = load float, ptr %9, align 4, !tbaa !52
  %101 = fpext float %100 to double
  %102 = call i32 (ptr, ptr, ...) @fprintf(ptr noundef %99, ptr noundef @.str.73, double noundef %101) #12
  %103 = load ptr, ptr %5, align 8, !tbaa !3
  %104 = getelementptr inbounds nuw %struct.Abc_Frame_t_, ptr %103, i32 0, i32 21
  %105 = load ptr, ptr %104, align 8, !tbaa !59
  %106 = load i32, ptr %11, align 4, !tbaa !29
  %107 = icmp ne i32 %106, 0
  %108 = select i1 %107, ptr @.str.39, ptr @.str.40
  %109 = call i32 (ptr, ptr, ...) @fprintf(ptr noundef %105, ptr noundef @.str.74, ptr noundef %108) #12
  %110 = load ptr, ptr %5, align 8, !tbaa !3
  %111 = getelementptr inbounds nuw %struct.Abc_Frame_t_, ptr %110, i32 0, i32 21
  %112 = load ptr, ptr %111, align 8, !tbaa !59
  %113 = call i32 (ptr, ptr, ...) @fprintf(ptr noundef %112, ptr noundef @.str.66) #12
  store i32 1, ptr %4, align 4
  store i32 1, ptr %12, align 4
  br label %114

114:                                              ; preds = %82, %76, %71
  call void @llvm.lifetime.end.p0(i64 4, ptr %11) #12
  call void @llvm.lifetime.end.p0(i64 4, ptr %10) #12
  call void @llvm.lifetime.end.p0(i64 4, ptr %9) #12
  call void @llvm.lifetime.end.p0(i64 4, ptr %8) #12
  %115 = load i32, ptr %4, align 4
  ret i32 %115
}