; Function Attrs: nounwind uwtable
define internal range(i32 0, 2) i32 @Scl_CommandLeak2Area(ptr noundef readonly captures(none) %0, i32 noundef %1, ptr noundef %2) #0 {
  tail call void (...) @Extra_UtilGetoptReset() #12
  br label %.outer

.outer:                                           ; preds = %8, %3
  %.027.ph = phi float [ %13, %8 ], [ 1.000000e+00, %3 ]
  %.025.ph = phi float [ %.025.ph75, %8 ], [ 1.000000e+00, %3 ]
  %.0.ph = phi i32 [ %.0, %8 ], [ 0, %3 ]
  br label %.outer74

.outer74:                                         ; preds = %.outer, %18
  %.025.ph75 = phi float [ %.025.ph, %.outer ], [ %23, %18 ]
  %.0.ph76 = phi i32 [ %.0.ph, %.outer ], [ %.0, %18 ]
  br label %4

4:                                                ; preds = %.outer74, %26
  %.0 = phi i32 [ %27, %26 ], [ %.0.ph76, %.outer74 ]
  %5 = tail call i32 @Extra_UtilGetopt(i32 noundef %1, ptr noundef %2, ptr noundef nonnull @.str.67) #12
  switch i32 %5, label %.loopexit [
    i32 -1, label %28
    i32 65, label %6
    i32 66, label %16
    i32 118, label %26
  ]

6:                                                ; preds = %4
  %7 = load i32, ptr @globalUtilOptind, align 4, !tbaa !81
  %.not35 = icmp slt i32 %7, %1
  br i1 %.not35, label %8, label %.loopexit.sink.split

8:                                                ; preds = %6
  %9 = sext i32 %7 to i64
  %10 = getelementptr inbounds ptr, ptr %2, i64 %9
  %11 = load ptr, ptr %10, align 8, !tbaa !82
  %12 = tail call double @strtod(ptr noundef nonnull captures(none) %11, ptr noundef null) #12
  %13 = fptrunc double %12 to float
  %14 = add nsw i32 %7, 1
  store i32 %14, ptr @globalUtilOptind, align 4, !tbaa !81
  %15 = fcmp ugt float %13, 0.000000e+00
  br i1 %15, label %.outer, label %.loopexit, !llvm.loop !89

16:                                               ; preds = %4
  %17 = load i32, ptr @globalUtilOptind, align 4, !tbaa !81
  %.not34 = icmp slt i32 %17, %1
  br i1 %.not34, label %18, label %.loopexit.sink.split

18:                                               ; preds = %16
  %19 = sext i32 %17 to i64
  %20 = getelementptr inbounds ptr, ptr %2, i64 %19
  %21 = load ptr, ptr %20, align 8, !tbaa !82
  %22 = tail call double @strtod(ptr noundef nonnull captures(none) %21, ptr noundef null) #12
  %23 = fptrunc double %22 to float
  %24 = add nsw i32 %17, 1
  store i32 %24, ptr @globalUtilOptind, align 4, !tbaa !81
  %25 = fcmp ugt float %23, 0.000000e+00
  br i1 %25, label %.outer74, label %.loopexit, !llvm.loop !89

26:                                               ; preds = %4
  %27 = xor i32 %.0, 1
  br label %4, !llvm.loop !89

28:                                               ; preds = %4
  %29 = getelementptr inbounds nuw i8, ptr %0, i64 240
  %30 = load ptr, ptr %29, align 8, !tbaa !85
  %31 = icmp eq ptr %30, null
  br i1 %31, label %32, label %36

32:                                               ; preds = %28
  %33 = getelementptr inbounds nuw i8, ptr %0, i64 136
  %34 = load ptr, ptr %33, align 8, !tbaa !84
  %35 = tail call i64 @fwrite(ptr nonnull @.str.54, i64 39, i64 1, ptr %34)
  br label %53

36:                                               ; preds = %28
  tail call void @Abc_SclConvertLeakageIntoArea(ptr noundef nonnull %30, float noundef %.027.ph, float noundef %.025.ph75) #12
  br label %53

.loopexit.sink.split:                             ; preds = %6, %16
  %.str.69.sink = phi ptr [ @.str.69, %16 ], [ @.str.68, %6 ]
  tail call void (i32, ptr, ...) @Abc_Print(i32 noundef -1, ptr noundef nonnull %.str.69.sink)
  br label %.loopexit

.loopexit:                                        ; preds = %18, %4, %8, %.loopexit.sink.split
  %.128 = phi float [ %.027.ph, %.loopexit.sink.split ], [ %.027.ph, %18 ], [ %.027.ph, %4 ], [ %13, %8 ]
  %.126 = phi float [ %.025.ph75, %.loopexit.sink.split ], [ %.025.ph75, %4 ], [ %23, %18 ], [ %.025.ph75, %8 ]
  %37 = getelementptr inbounds nuw i8, ptr %0, i64 136
  %38 = load ptr, ptr %37, align 8, !tbaa !84
  %39 = tail call i64 @fwrite(ptr nonnull @.str.70, i64 34, i64 1, ptr %38)
  %40 = load ptr, ptr %37, align 8, !tbaa !84
  %41 = tail call i64 @fwrite(ptr nonnull @.str.71, i64 70, i64 1, ptr %40)
  %42 = load ptr, ptr %37, align 8, !tbaa !84
  %43 = fpext float %.128 to double
  %44 = tail call i32 (ptr, ptr, ...) @fprintf(ptr noundef %42, ptr noundef nonnull @.str.72, double noundef %43) #12
  %45 = load ptr, ptr %37, align 8, !tbaa !84
  %46 = fpext float %.126 to double
  %47 = tail call i32 (ptr, ptr, ...) @fprintf(ptr noundef %45, ptr noundef nonnull @.str.73, double noundef %46) #12
  %48 = load ptr, ptr %37, align 8, !tbaa !84
  %.not36 = icmp eq i32 %.0, 0
  %49 = select i1 %.not36, ptr @.str.40, ptr @.str.39
  %50 = tail call i32 (ptr, ptr, ...) @fprintf(ptr noundef %48, ptr noundef nonnull @.str.74, ptr noundef nonnull %49) #12
  %51 = load ptr, ptr %37, align 8, !tbaa !84
  %52 = tail call i64 @fwrite(ptr nonnull @.str.66, i64 35, i64 1, ptr %51)
  br label %53

53:                                               ; preds = %.loopexit, %36, %32
  %.024 = phi i32 [ 1, %.loopexit ], [ 1, %32 ], [ 0, %36 ]
  ret i32 %.024
}